target datalayout = "e-m:e-p270:32:32-p271:32:32-p272:64:64-i64:64-i128:128-f80:128-n8:16:32:64-S128"
target triple = "x86_64-pc-linux-gnu"

%struct.pseudo_merge_map = type { ptr, i64, i64, ptr, ptr, i64 }
%struct.pseudo_merge = type { ptr, ptr, i64, i64, i8 }

@.str.20 = private unnamed_addr constant [1 x i8] zeroinitializer, align 1
@git_gettext_enabled = external global i32, align 4
@.str.28 = private unnamed_addr constant [56 x i8] c"could not find pseudo-merge for commit %s at offset %lu\00", align 1

; Function Attrs: inlinehint nounwind uwtable
define internal ptr @_(ptr noundef %0) #4 {
  %2 = alloca ptr, align 8
  %3 = alloca ptr, align 8
  store ptr %0, ptr %3, align 8, !tbaa !56
  %4 = load ptr, ptr %3, align 8, !tbaa !56
  %5 = load i8, ptr %4, align 1, !tbaa !62
  %6 = icmp ne i8 %5, 0
  br i1 %6, label %8, label %7

7:                                                ; preds = %1
  store ptr @.str.20, ptr %2, align 8
  br label %16

8:                                                ; preds = %1
  %9 = load i32, ptr @git_gettext_enabled, align 4, !tbaa !59
  %10 = icmp ne i32 %9, 0
  br i1 %10, label %13, label %11

11:                                               ; preds = %8
  %12 = load ptr, ptr %3, align 8, !tbaa !56
  store ptr %12, ptr %2, align 8
  br label %16

13:                                               ; preds = %8
  %14 = load ptr, ptr %3, align 8, !tbaa !56
  %15 = call ptr @dcgettext(ptr noundef null, ptr noundef %14, i32 noundef 5) #10
  store ptr %15, ptr %2, align 8
  br label %16

16:                                               ; preds = %13, %11, %7
  %17 = load ptr, ptr %2, align 8
  ret ptr %17
}

; Function Attrs: nounwind uwtable
define dso_local ptr @use_pseudo_merge(ptr noundef %0, ptr noundef %1) #0 {
  %3 = alloca ptr, align 8
  %4 = alloca ptr, align 8
  %5 = alloca i64, align 8
  store ptr %0, ptr %3, align 8, !tbaa !126
  store ptr %1, ptr %4, align 8, !tbaa !136
  %6 = load ptr, ptr %4, align 8, !tbaa !136
  %7 = getelementptr inbounds nuw %struct.pseudo_merge, ptr %6, i32 0, i32 4
  %8 = load i8, ptr %7, align 8
  %9 = lshr i8 %8, 1
  %10 = and i8 %9, 1
  %11 = zext i8 %10 to i32
  %12 = icmp ne i32 %11, 0
  br i1 %12, label %34, label %13

13:                                               ; preds = %2
  call void @llvm.lifetime.start.p0(i64 8, ptr %5) #10
  %14 = load ptr, ptr %4, align 8, !tbaa !136
  %15 = getelementptr inbounds nuw %struct.pseudo_merge, ptr %14, i32 0, i32 2
  %16 = load i64, ptr %15, align 8, !tbaa !140
  store i64 %16, ptr %5, align 8, !tbaa !36
  %17 = load ptr, ptr %3, align 8, !tbaa !126
  %18 = getelementptr inbounds nuw %struct.pseudo_merge_map, ptr %17, i32 0, i32 3
  %19 = load ptr, ptr %18, align 8, !tbaa !138
  %20 = load ptr, ptr %3, align 8, !tbaa !126
  %21 = getelementptr inbounds nuw %struct.pseudo_merge_map, ptr %20, i32 0, i32 5
  %22 = load i64, ptr %21, align 8, !tbaa !139
  %23 = call ptr @read_bitmap(ptr noundef %19, i64 noundef %22, ptr noundef %5)
  %24 = load ptr, ptr %4, align 8, !tbaa !136
  %25 = getelementptr inbounds nuw %struct.pseudo_merge, ptr %24, i32 0, i32 0
  store ptr %23, ptr %25, align 8, !tbaa !132
  %26 = load i64, ptr %5, align 8, !tbaa !36
  %27 = load ptr, ptr %4, align 8, !tbaa !136
  %28 = getelementptr inbounds nuw %struct.pseudo_merge, ptr %27, i32 0, i32 3
  store i64 %26, ptr %28, align 8, !tbaa !137
  %29 = load ptr, ptr %4, align 8, !tbaa !136
  %30 = getelementptr inbounds nuw %struct.pseudo_merge, ptr %29, i32 0, i32 4
  %31 = load i8, ptr %30, align 8
  %32 = and i8 %31, -3
  %33 = or i8 %32, 2
  store i8 %33, ptr %30, align 8
  call void @llvm.lifetime.end.p0(i64 8, ptr %5) #10
  br label %34

34:                                               ; preds = %13, %2
  %35 = load ptr, ptr %4, align 8, !tbaa !136
  ret ptr %35
}

; Function Attrs: nounwind uwtable
define internal ptr @pseudo_merge_at(ptr noundef %0, ptr noundef %1, i64 noundef %2) #0 {
  %4 = alloca ptr, align 8
  %5 = alloca ptr, align 8
  %6 = alloca ptr, align 8
  %7 = alloca i64, align 8
  %8 = alloca i64, align 8
  %9 = alloca i64, align 8
  %10 = alloca i64, align 8
  %11 = alloca i64, align 8
  %12 = alloca i32, align 4
  store ptr %0, ptr %5, align 8, !tbaa !126
  store ptr %1, ptr %6, align 8, !tbaa !84
  store i64 %2, ptr %7, align 8, !tbaa !36
  call void @llvm.lifetime.start.p0(i64 8, ptr %8) #10
  store i64 0, ptr %8, align 8, !tbaa !36
  call void @llvm.lifetime.start.p0(i64 8, ptr %9) #10
  %13 = load ptr, ptr %5, align 8, !tbaa !126
  %14 = getelementptr inbounds nuw %struct.pseudo_merge_map, ptr %13, i32 0, i32 1
  %15 = load i64, ptr %14, align 8, !tbaa !128
  store i64 %15, ptr %9, align 8, !tbaa !36
  br label %16

16:                                               ; preds = %58, %3
  %17 = load i64, ptr %8, align 8, !tbaa !36
  %18 = load i64, ptr %9, align 8, !tbaa !36
  %19 = icmp ult i64 %17, %18
  br i1 %19, label %20, label %59

20:                                               ; preds = %16
  call void @llvm.lifetime.start.p0(i64 8, ptr %10) #10
  %21 = load i64, ptr %8, align 8, !tbaa !36
  %22 = load i64, ptr %9, align 8, !tbaa !36
  %23 = load i64, ptr %8, align 8, !tbaa !36
  %24 = sub i64 %22, %23
  %25 = udiv i64 %24, 2
  %26 = add i64 %21, %25
  store i64 %26, ptr %10, align 8, !tbaa !36
  call void @llvm.lifetime.start.p0(i64 8, ptr %11) #10
  %27 = load ptr, ptr %5, align 8, !tbaa !126
  %28 = getelementptr inbounds nuw %struct.pseudo_merge_map, ptr %27, i32 0, i32 0
  %29 = load ptr, ptr %28, align 8, !tbaa !131
  %30 = load i64, ptr %10, align 8, !tbaa !36
  %31 = getelementptr inbounds nuw %struct.pseudo_merge, ptr %29, i64 %30
  %32 = getelementptr inbounds nuw %struct.pseudo_merge, ptr %31, i32 0, i32 2
  %33 = load i64, ptr %32, align 8, !tbaa !140
  store i64 %33, ptr %11, align 8, !tbaa !36
  %34 = load i64, ptr %11, align 8, !tbaa !36
  %35 = load i64, ptr %7, align 8, !tbaa !36
  %36 = icmp eq i64 %34, %35
  br i1 %36, label %37, label %45

37:                                               ; preds = %20
  %38 = load ptr, ptr %5, align 8, !tbaa !126
  %39 = load ptr, ptr %5, align 8, !tbaa !126
  %40 = getelementptr inbounds nuw %struct.pseudo_merge_map, ptr %39, i32 0, i32 0
  %41 = load ptr, ptr %40, align 8, !tbaa !131
  %42 = load i64, ptr %10, align 8, !tbaa !36
  %43 = getelementptr inbounds nuw %struct.pseudo_merge, ptr %41, i64 %42
  %44 = call ptr @use_pseudo_merge(ptr noundef %38, ptr noundef %43)
  store ptr %44, ptr %4, align 8
  store i32 1, ptr %12, align 4
  br label %56

45:                                               ; preds = %20
  %46 = load i64, ptr %11, align 8, !tbaa !36
  %47 = load i64, ptr %7, align 8, !tbaa !36
  %48 = icmp ult i64 %46, %47
  br i1 %48, label %49, label %51

49:                                               ; preds = %45
  %50 = load i64, ptr %10, align 8, !tbaa !36
  store i64 %50, ptr %9, align 8, !tbaa !36
  br label %54

51:                                               ; preds = %45
  %52 = load i64, ptr %10, align 8, !tbaa !36
  %53 = add i64 %52, 1
  store i64 %53, ptr %8, align 8, !tbaa !36
  br label %54

54:                                               ; preds = %51, %49
  br label %55

55:                                               ; preds = %54
  store i32 0, ptr %12, align 4
  br label %56

56:                                               ; preds = %55, %37
  call void @llvm.lifetime.end.p0(i64 8, ptr %11) #10
  call void @llvm.lifetime.end.p0(i64 8, ptr %10) #10
  %57 = load i32, ptr %12, align 4
  switch i32 %57, label %64 [
    i32 0, label %58
  ]

58:                                               ; preds = %56
  br label %16, !llvm.loop !155

59:                                               ; preds = %16
  %60 = call ptr @_(ptr noundef @.str.28)
  %61 = load ptr, ptr %6, align 8, !tbaa !84
  %62 = call ptr @oid_to_hex(ptr noundef %61)
  %63 = load i64, ptr %7, align 8, !tbaa !36
  call void (ptr, ...) @warning(ptr noundef %60, ptr noundef %62, i64 noundef %63)
  store ptr null, ptr %4, align 8
  store i32 1, ptr %12, align 4
  br label %64

64:                                               ; preds = %59, %56
  call void @llvm.lifetime.end.p0(i64 8, ptr %9) #10
  call void @llvm.lifetime.end.p0(i64 8, ptr %8) #10
  %65 = load ptr, ptr %4, align 8
  ret ptr %65
}