; Function Attrs: nounwind uwtable
define internal fastcc ptr @pseudo_merge_at(ptr noundef readonly captures(none) %0, ptr noundef %1, i64 noundef %2) unnamed_addr #0 {
  %4 = alloca i64, align 8
  %5 = getelementptr inbounds nuw i8, ptr %0, i64 8
  %6 = load i64, ptr %5, align 8, !tbaa !102
  %.not36 = icmp eq i64 %6, 0
  br i1 %.not36, label %._crit_edge, label %.lr.ph

.lr.ph:                                           ; preds = %3
  %7 = load ptr, ptr %0, align 8, !tbaa !105
  br label %8

8:                                                ; preds = %.lr.ph, %use_pseudo_merge.exit
  %.02135 = phi i64 [ 0, %.lr.ph ], [ %.223, %use_pseudo_merge.exit ]
  %.02434 = phi i64 [ %6, %.lr.ph ], [ %.226, %use_pseudo_merge.exit ]
  %9 = sub nuw i64 %.02434, %.02135
  %10 = lshr i64 %9, 1
  %11 = add i64 %10, %.02135
  %12 = getelementptr inbounds nuw %struct.pseudo_merge, ptr %7, i64 %11
  %13 = getelementptr inbounds nuw i8, ptr %12, i64 16
  %14 = load i64, ptr %13, align 8, !tbaa !114
  %.not = icmp eq i64 %14, %2
  br i1 %.not, label %15, label %use_pseudo_merge.exit

15:                                               ; preds = %8
  %16 = getelementptr inbounds nuw i8, ptr %12, i64 32
  %17 = load i8, ptr %16, align 8
  %18 = and i8 %17, 2
  %.not.i = icmp eq i8 %18, 0
  br i1 %.not.i, label %19, label %use_pseudo_merge.exit.thread

19:                                               ; preds = %15
  call void @llvm.lifetime.start.p0(i64 8, ptr nonnull %4) #15
  store i64 %2, ptr %4, align 8, !tbaa !111
  %20 = getelementptr inbounds nuw i8, ptr %0, i64 24
  %21 = load ptr, ptr %20, align 8, !tbaa !112
  %22 = getelementptr inbounds nuw i8, ptr %0, i64 40
  %23 = load i64, ptr %22, align 8, !tbaa !113
  %24 = call ptr @read_bitmap(ptr noundef %21, i64 noundef %23, ptr noundef nonnull %4) #15
  store ptr %24, ptr %12, align 8, !tbaa !106
  %25 = load i64, ptr %4, align 8, !tbaa !111
  %26 = getelementptr inbounds nuw i8, ptr %12, i64 24
  store i64 %25, ptr %26, align 8, !tbaa !110
  %27 = load i8, ptr %16, align 8
  %28 = or i8 %27, 2
  store i8 %28, ptr %16, align 8
  call void @llvm.lifetime.end.p0(i64 8, ptr nonnull %4) #15
  br label %use_pseudo_merge.exit.thread

use_pseudo_merge.exit:                            ; preds = %8
  %29 = icmp ult i64 %14, %2
  %30 = add i64 %11, 1
  %.226 = select i1 %29, i64 %11, i64 %.02434
  %.223 = select i1 %29, i64 %.02135, i64 %30
  %31 = icmp ult i64 %.223, %.226
  br i1 %31, label %8, label %._crit_edge

._crit_edge:                                      ; preds = %use_pseudo_merge.exit, %3
  %32 = load i32, ptr @git_gettext_enabled, align 4, !tbaa !50
  %.not4.i = icmp eq i32 %32, 0
  br i1 %.not4.i, label %_.exit, label %33

33:                                               ; preds = %._crit_edge
  %34 = tail call ptr @dcgettext(ptr noundef null, ptr noundef nonnull @.str.28, i32 noundef 5) #15
  br label %_.exit

_.exit:                                           ; preds = %._crit_edge, %33
  %.0.i = phi ptr [ %34, %33 ], [ @.str.28, %._crit_edge ]
  %35 = tail call ptr @oid_to_hex(ptr noundef %1) #15
  tail call void (ptr, ...) @warning(ptr noundef %.0.i, ptr noundef %35, i64 noundef %2) #15
  br label %use_pseudo_merge.exit.thread

use_pseudo_merge.exit.thread:                     ; preds = %15, %19, %_.exit
  %.2 = phi ptr [ null, %_.exit ], [ %12, %19 ], [ %12, %15 ]
  ret ptr %.2
}